; Function Attrs: nounwind uwtable
define hidden void @DH_free(ptr noundef %dh) local_unnamed_addr #0 {
entry:
  %cmp = icmp eq ptr %dh, null
  br i1 %cmp, label %return, label %if.end

if.end:                                           ; preds = %entry
  %references = getelementptr inbounds nuw i8, ptr %dh, i64 148
  %call = tail call i32 @CRYPTO_refcount_dec_and_test_zero(ptr noundef nonnull %references) #4
  %tobool.not = icmp eq i32 %call, 0
  br i1 %tobool.not, label %return, label %if.end2

if.end2:                                          ; preds = %if.end
  %ex_data = getelementptr inbounds nuw i8, ptr %dh, i64 152
  tail call void @CRYPTO_free_ex_data(ptr noundef nonnull @g_ex_data_class, ptr noundef nonnull %dh, ptr noundef nonnull %ex_data) #4
  %method_mont_p = getelementptr inbounds nuw i8, ptr %dh, i64 96
  %0 = load ptr, ptr %method_mont_p, align 8
  tail call void @BN_MONT_CTX_free(ptr noundef %0) #4
  %1 = load ptr, ptr %dh, align 8
  tail call void @BN_clear_free(ptr noundef %1) #4
  %g = getelementptr inbounds nuw i8, ptr %dh, i64 8
  %2 = load ptr, ptr %g, align 8
  tail call void @BN_clear_free(ptr noundef %2) #4
  %q = getelementptr inbounds nuw i8, ptr %dh, i64 104
  %3 = load ptr, ptr %q, align 8
  tail call void @BN_clear_free(ptr noundef %3) #4
  %j = getelementptr inbounds nuw i8, ptr %dh, i64 112
  %4 = load ptr, ptr %j, align 8
  tail call void @BN_clear_free(ptr noundef %4) #4
  %seed = getelementptr inbounds nuw i8, ptr %dh, i64 120
  %5 = load ptr, ptr %seed, align 8
  tail call void @free(ptr noundef %5) #4
  %counter = getelementptr inbounds nuw i8, ptr %dh, i64 136
  %6 = load ptr, ptr %counter, align 8
  tail call void @BN_clear_free(ptr noundef %6) #4
  %pub_key = getelementptr inbounds nuw i8, ptr %dh, i64 16
  %7 = load ptr, ptr %pub_key, align 8
  tail call void @BN_clear_free(ptr noundef %7) #4
  %priv_key = getelementptr inbounds nuw i8, ptr %dh, i64 24
  %8 = load ptr, ptr %priv_key, align 8
  tail call void @BN_clear_free(ptr noundef %8) #4
  %method_mont_p_lock = getelementptr inbounds nuw i8, ptr %dh, i64 40
  tail call void @CRYPTO_MUTEX_cleanup(ptr noundef nonnull %method_mont_p_lock) #4
  tail call void @free(ptr noundef nonnull %dh) #4
  br label %return

return:                                           ; preds = %if.end, %entry, %if.end2
  ret void
}